; Function Attrs: mustprogress nounwind uwtable
define noundef ptr @_ZNK3gmx25CommandLineProgramContext11displayNameEv(ptr nocapture noundef nonnull readonly align 8 dereferenceable(16) %0) unnamed_addr #0 align 2 {
  %2 = getelementptr inbounds i8, ptr %0, i64 8
  %3 = load ptr, ptr %2, align 8
  %4 = getelementptr inbounds i8, ptr %3, i64 80
  %5 = tail call noundef zeroext i1 @_ZNKSt7__cxx1112basic_stringIcSt11char_traitsIcESaIcEE5emptyEv(ptr noundef nonnull align 8 dereferenceable(32) %4) #13
  %6 = load ptr, ptr %2, align 8
  %. = select i1 %5, i64 48, i64 80
  %7 = getelementptr inbounds i8, ptr %6, i64 %.
  %8 = tail call noundef ptr @_ZNKSt7__cxx1112basic_stringIcSt11char_traitsIcESaIcEE5c_strEv(ptr noundef nonnull align 8 dereferenceable(32) %7) #13
  ret ptr %8
}